Certificate:
    Data:
        Version: 3 (0x2)
        Serial Number: 10219485242066736108 (0x8dd2e7aeb8bc13ec)
    Signature Algorithm: sha1WithRSAEncryption
        Issuer: C=CN, ST=SH, L=SH, O=lakala, OU=lakala, CN=lakala/emailAddress=report@lakala
        Validity
            Not Before: Jun 30 07:21:01 2016 GMT
            Not After : Jun 18 07:21:01 2066 GMT
        Subject: C=CN, ST=SH, O=lakala, OU=lakala, CN=mwork.lakala.com/emailAddress=report@lakala.com
        Subject Public Key Info:
            Public Key Algorithm: rsaEncryption
                Public-Key: (1024 bit)
                Modulus:
                    00:b9:10:29:33:30:6e:0e:a4:73:d1:9e:c8:9b:89:
                    2a:ee:19:a3:c9:85:d2:b1:9d:6b:62:61:f6:5e:37:
                    54:8b:a4:48:de:6f:6f:9d:19:e4:5c:28:78:27:cc:
                    56:65:be:13:ab:b3:62:61:ab:50:34:ad:07:35:19:
                    70:80:23:39:a0:a0:34:f5:56:9b:d0:34:63:51:ef:
                    cb:e2:57:e0:da:cd:2f:c9:f3:31:6e:0b:e2:11:8d:
                    2d:fd:b8:17:c3:98:be:0a:db:00:d8:c3:c8:d7:c9:
                    b6:ee:5d:4d:b8:16:e9:3d:b5:8c:cb:59:43:07:c8:
                    94:8e:43:d2:ca:ef:99:cf:7d
                Exponent: 65537 (0x10001)
        X509v3 extensions:
            X509v3 Basic Constraints: 
                CA:FALSE
            Netscape Comment: 
                OpenSSL Generated Certificate
            X509v3 Subject Key Identifier: 
                07:87:44:51:40:E4:D8:AC:30:74:CC:F0:9C:3F:24:AE:09:2E:7A:F3
            X509v3 Authority Key Identifier: 
                keyid:C2:02:B6:10:5C:60:C3:27:51:94:7E:4F:AD:7F:8A:14:4E:31:70:A1

    Signature Algorithm: sha1WithRSAEncryption
         40:a6:df:b9:f3:da:26:34:35:a9:3e:0d:9f:64:e2:69:9b:62:
         64:c5:69:aa:16:fe:d3:3f:e5:90:be:5b:7e:ec:0b:04:b4:1e:
         6e:b1:e5:f1:89:08:7f:21:04:3f:98:a2:07:4f:6a:d8:36:88:
         30:35:86:30:de:52:bb:75:35:6d:37:57:0a:6b:5c:45:48:47:
         cc:11:0d:46:79:76:f1:26:73:f7:e6:98:bd:74:ff:d5:76:e4:
         d2:f6:4f:1e:00:5a:be:6d:b2:14:a9:e4:b7:bb:c4:6a:88:e2:
         9c:d2:b3:a8:3b:35:2e:24:00:99:ac:e1:83:ce:85:69:a2:64:
         17:ac
-----BEGIN CERTIFICATE-----
MIIC7DCCAlWgAwIBAgIJAI3S5664vBPsMA0GCSqGSIb3DQEBBQUAMHgxCzAJBgNV
BAYTAkNOMQswCQYDVQQIDAJTSDELMAkGA1UEBwwCU0gxDzANBgNVBAoMBmxha2Fs
YTEPMA0GA1UECwwGbGFrYWxhMQ8wDQYDVQQDDAZsYWthbGExHDAaBgkqhkiG9w0B
CQEWDXJlcG9ydEBsYWthbGEwIBcNMTYwNjMwMDcyMTAxWhgPMjA2NjA2MTgwNzIx
MDFaMHkxCzAJBgNVBAYTAkNOMQswCQYDVQQIDAJTSDEPMA0GA1UECgwGbGFrYWxh
MQ8wDQYDVQQLDAZsYWthbGExGTAXBgNVBAMMEG13b3JrLmxha2FsYS5jb20xIDAe
BgkqhkiG9w0BCQEWEXJlcG9ydEBsYWthbGEuY29tMIGfMA0GCSqGSIb3DQEBAQUA
A4GNADCBiQKBgQC5ECkzMG4OpHPRnsibiSruGaPJhdKxnWtiYfZeN1SLpEjeb2+d
GeRcKHgnzFZlvhOrs2Jhq1A0rQc1GXCAIzmgoDT1VpvQNGNR78viV+DazS/J8zFu
C+IRjS39uBfDmL4K2wDYw8jXybbuXU24Fuk9tYzLWUMHyJSOQ9LK75nPfQIDAQAB
o3sweTAJBgNVHRMEAjAAMCwGCWCGSAGG+EIBDQQfFh1PcGVuU1NMIEdlbmVyYXRl
ZCBDZXJ0aWZpY2F0ZTAdBgNVHQ4EFgQUB4dEUUDk2KwwdMzwnD8krgkuevMwHwYD
VR0jBBgwFoAUwgK2EFxgwydRlH5PrX+KFE4xcKEwDQYJKoZIhvcNAQEFBQADgYEA
QKbfufPaJjQ1qT4Nn2TiaZtiZMVpqhb+0z/lkL5bfuwLBLQebrHl8YkIfyEEP5ii
B09q2DaIMDWGMN5Su3U1bTdXCmtcRUhHzBENRnl28SZz9+aYvXT/1Xbk0vZPHgBa
vm2yFKnkt7vEaojinNKzqDs1LiQAmazhg86FaaJkF6w=
-----END CERTIFICATE-----
